ccopy_reg
_reconstructor
p0
(cneat.genome
DefaultGenome
p1
c__builtin__
object
p2
Ntp3
Rp4
(dp5
S'connections'
p6
(dp7
(I-10
I2
tp8
g0
(cneat.genes
DefaultConnectionGene
p9
g2
Ntp10
Rp11
(dp12
S'enabled'
p13
I01
sS'weight'
p14
F-1.1387875257207762
sS'key'
p15
g8
sbs(I-1
I0
tp16
g0
(g9
g2
Ntp17
Rp18
(dp19
g13
I01
sg14
F-1.518031694250761
sg15
g16
sbs(I-11
I1
tp20
g0
(g9
g2
Ntp21
Rp22
(dp23
g13
I01
sg14
F0.5753877958983173
sg15
g20
sbs(I-6
I3
tp24
g0
(g9
g2
Ntp25
Rp26
(dp27
g13
I01
sg14
F0.5698772335306336
sg15
g24
sbs(I-9
I2
tp28
g0
(g9
g2
Ntp29
Rp30
(dp31
g13
I01
sg14
F0.18784700578103455
sg15
g28
sbs(I-12
I0
tp32
g0
(g9
g2
Ntp33
Rp34
(dp35
g13
I01
sg14
F0.6431823115568286
sg15
g32
sbs(I-15
I2
tp36
g0
(g9
g2
Ntp37
Rp38
(dp39
g13
I01
sg14
F-1.365199137237768
sg15
g36
sbs(I-4
I2
tp40
g0
(g9
g2
Ntp41
Rp42
(dp43
g13
I01
sg14
F-0.6681008404273441
sg15
g40
sbs(I-7
I0
tp44
g0
(g9
g2
Ntp45
Rp46
(dp47
g13
I01
sg14
F-0.18814629784404557
sg15
g44
sbs(I-13
I3
tp48
g0
(g9
g2
Ntp49
Rp50
(dp51
g13
I01
sg14
F-1.0125036684841158
sg15
g48
sbs(I-3
I3
tp52
g0
(g9
g2
Ntp53
Rp54
(dp55
g13
I01
sg14
F1.0439589375840466
sg15
g52
sbs(I-8
I1
tp56
g0
(g9
g2
Ntp57
Rp58
(dp59
g13
I01
sg14
F-0.9486724415263731
sg15
g56
sbs(I-2
I0
tp60
g0
(g9
g2
Ntp61
Rp62
(dp63
g13
I01
sg14
F-1.3740313950397567
sg15
g60
sbs(I-10
I3
tp64
g0
(g9
g2
Ntp65
Rp66
(dp67
g13
I01
sg14
F1.3129774724483132
sg15
g64
sbs(I-2
I1
tp68
g0
(g9
g2
Ntp69
Rp70
(dp71
g13
I01
sg14
F0.519299399796736
sg15
g68
sbs(I-5
I1
tp72
g0
(g9
g2
Ntp73
Rp74
(dp75
g13
I01
sg14
F1.7768168815174086
sg15
g72
sbs(I-11
I0
tp76
g0
(g9
g2
Ntp77
Rp78
(dp79
g13
I01
sg14
F-0.27633100532865174
sg15
g76
sbs(I-9
I3
tp80
g0
(g9
g2
Ntp81
Rp82
(dp83
g13
I01
sg14
F0.6999978265181828
sg15
g80
sbs(I-6
I0
tp84
g0
(g9
g2
Ntp85
Rp86
(dp87
g13
I01
sg14
F0.4131752354848233
sg15
g84
sbs(I-12
I1
tp88
g0
(g9
g2
Ntp89
Rp90
(dp91
g13
I01
sg14
F1.7989520005695803
sg15
g88
sbs(I-15
I1
tp92
g0
(g9
g2
Ntp93
Rp94
(dp95
g13
I01
sg14
F-1.5986339160628407
sg15
g92
sbs(I-4
I3
tp96
g0
(g9
g2
Ntp97
Rp98
(dp99
g13
I01
sg14
F-1.1795823907219145
sg15
g96
sbs(I-13
I2
tp100
g0
(g9
g2
Ntp101
Rp102
(dp103
g13
I01
sg14
F0.1381645857243001
sg15
g100
sbs(I-3
I2
tp104
g0
(g9
g2
Ntp105
Rp106
(dp107
g13
I01
sg14
F-0.9588854235222954
sg15
g104
sbs(I-8
I2
tp108
g0
(g9
g2
Ntp109
Rp110
(dp111
g13
I01
sg14
F-0.37303922192666805
sg15
g108
sbs(I-9
I1
tp112
g0
(g9
g2
Ntp113
Rp114
(dp115
g13
I01
sg14
F-0.6206327130836983
sg15
g112
sbs(I-7
I3
tp116
g0
(g9
g2
Ntp117
Rp118
(dp119
g13
I01
sg14
F0.4860527121659373
sg15
g116
sbs(I-10
I0
tp120
g0
(g9
g2
Ntp121
Rp122
(dp123
g13
I01
sg14
F-0.8311022041031301
sg15
g120
sbs(I-5
I0
tp124
g0
(g9
g2
Ntp125
Rp126
(dp127
g13
I01
sg14
F0.7073189568366327
sg15
g124
sbs(I-1
I2
tp128
g0
(g9
g2
Ntp129
Rp130
(dp131
g13
I01
sg14
F-0.46602939282650563
sg15
g128
sbs(I-14
I3
tp132
g0
(g9
g2
Ntp133
Rp134
(dp135
g13
I01
sg14
F-1.242877931403009
sg15
g132
sbs(I-6
I1
tp136
g0
(g9
g2
Ntp137
Rp138
(dp139
g13
I01
sg14
F0.5126231768444369
sg15
g136
sbs(I-12
I2
tp140
g0
(g9
g2
Ntp141
Rp142
(dp143
g13
I01
sg14
F-0.8316653917546482
sg15
g140
sbs(I-15
I0
tp144
g0
(g9
g2
Ntp145
Rp146
(dp147
g13
I01
sg14
F0.2754416305835595
sg15
g144
sbs(I-2
I2
tp148
g0
(g9
g2
Ntp149
Rp150
(dp151
g13
I01
sg14
F-0.8970387753874859
sg15
g148
sbs(I-1
I1
tp152
g0
(g9
g2
Ntp153
Rp154
(dp155
g13
I01
sg14
F-1.1731005834468844
sg15
g152
sbs(I-11
I3
tp156
g0
(g9
g2
Ntp157
Rp158
(dp159
g13
I01
sg14
F0.645531993485371
sg15
g156
sbs(I-3
I1
tp160
g0
(g9
g2
Ntp161
Rp162
(dp163
g13
I01
sg14
F-2.8922614362347923
sg15
g160
sbs(I-8
I3
tp164
g0
(g9
g2
Ntp165
Rp166
(dp167
g13
I01
sg14
F0.9444746927432867
sg15
g164
sbs(I-9
I0
tp168
g0
(g9
g2
Ntp169
Rp170
(dp171
g13
I01
sg14
F-1.2276794450182746
sg15
g168
sbs(I-4
I0
tp172
g0
(g9
g2
Ntp173
Rp174
(dp175
g13
I01
sg14
F-0.05761226300719517
sg15
g172
sbs(I-7
I2
tp176
g0
(g9
g2
Ntp177
Rp178
(dp179
g13
I01
sg14
F-0.442238274173308
sg15
g176
sbs(I-10
I1
tp180
g0
(g9
g2
Ntp181
Rp182
(dp183
g13
I01
sg14
F0.46328724173844643
sg15
g180
sbs(I-13
I1
tp184
g0
(g9
g2
Ntp185
Rp186
(dp187
g13
I01
sg14
F-0.43289301296808286
sg15
g184
sbs(I-5
I3
tp188
g0
(g9
g2
Ntp189
Rp190
(dp191
g13
I01
sg14
F0.6390671895093659
sg15
g188
sbs(I-14
I0
tp192
g0
(g9
g2
Ntp193
Rp194
(dp195
g13
I01
sg14
F-0.15822483056652897
sg15
g192
sbs(I-12
I3
tp196
g0
(g9
g2
Ntp197
Rp198
(dp199
g13
I01
sg14
F1.9214469408192445
sg15
g196
sbs(I-1
I3
tp200
g0
(g9
g2
Ntp201
Rp202
(dp203
g13
I01
sg14
F-0.7239271010628359
sg15
g200
sbs(I-14
I2
tp204
g0
(g9
g2
Ntp205
Rp206
(dp207
g13
I01
sg14
F-0.6821404599145431
sg15
g204
sbs(I-11
I2
tp208
g0
(g9
g2
Ntp209
Rp210
(dp211
g13
I01
sg14
F1.2198984262736416
sg15
g208
sbs(I-3
I0
tp212
g0
(g9
g2
Ntp213
Rp214
(dp215
g13
I01
sg14
F-0.5429150941005595
sg15
g212
sbs(I-6
I2
tp216
g0
(g9
g2
Ntp217
Rp218
(dp219
g13
I01
sg14
F-0.5311662967322119
sg15
g216
sbs(I-2
I3
tp220
g0
(g9
g2
Ntp221
Rp222
(dp223
g13
I01
sg14
F-0.6774653017703232
sg15
g220
sbs(I-15
I3
tp224
g0
(g9
g2
Ntp225
Rp226
(dp227
g13
I01
sg14
F0.7409185345010458
sg15
g224
sbs(I-4
I1
tp228
g0
(g9
g2
Ntp229
Rp230
(dp231
g13
I01
sg14
F1.0004528983098737
sg15
g228
sbs(I-7
I1
tp232
g0
(g9
g2
Ntp233
Rp234
(dp235
g13
I01
sg14
F-0.30876006223805624
sg15
g232
sbs(I-13
I0
tp236
g0
(g9
g2
Ntp237
Rp238
(dp239
g13
I01
sg14
F-0.512932528851828
sg15
g236
sbs(I-5
I2
tp240
g0
(g9
g2
Ntp241
Rp242
(dp243
g13
I01
sg14
F0.05782220048545729
sg15
g240
sbs(I-8
I0
tp244
g0
(g9
g2
Ntp245
Rp246
(dp247
g13
I01
sg14
F-0.41134678207372966
sg15
g244
sbs(I-14
I1
tp248
g0
(g9
g2
Ntp249
Rp250
(dp251
g13
I01
sg14
F0.6392595670995296
sg15
g248
sbssS'nodes'
p252
(dp253
I0
g0
(cneat.genes
DefaultNodeGene
p254
g2
Ntp255
Rp256
(dp257
S'activation'
p258
S'relu'
p259
sS'bias'
p260
F-0.786945533450784
sS'response'
p261
F1.0
sg15
I0
sS'aggregation'
p262
S'sum'
p263
sbsI1
g0
(g254
g2
Ntp264
Rp265
(dp266
g258
g259
sg260
F-1.4310403073553808
sg261
F1.0
sg15
I1
sg262
g263
sbsI2
g0
(g254
g2
Ntp267
Rp268
(dp269
g258
g259
sg260
F-0.7284564772226702
sg261
F1.0
sg15
I2
sg262
g263
sbsI3
g0
(g254
g2
Ntp270
Rp271
(dp272
g258
g259
sg260
F-0.8845094884178882
sg261
F1.0
sg15
I3
sg262
g263
sbssg15
I1
sS'fitness'
p273
I0
sb.